	.file	"static.c"
	.text
	.section	.rodata
.LC0:
	.string	"result initialized as 5 %d\n"
	.text
	.globl	sum
	.type	sum, @function
sum:
.LFB0:
	.cfi_startproc
	pushq	%rbp
	.cfi_def_cfa_offset 16
	.cfi_offset 6, -16
	movq	%rsp, %rbp
	.cfi_def_cfa_register 6
	subq	$16, %rsp
	movl	%edi, -4(%rbp)
	movl	%esi, -8(%rbp)
	movl	result.2362(%rip), %eax
	addl	$1, %eax
	movl	%eax, result.2362(%rip)
	movl	result.2362(%rip), %eax
	movl	%eax, %esi
	leaq	.LC0(%rip), %rdi
	movl	$0, %eax
	call	printf@PLT
	nop
	leave
	.cfi_def_cfa 7, 8
	ret
	.cfi_endproc
.LFE0:
	.size	sum, .-sum
	.section	.rodata
.LC1:
	.string	"result initialized as 15 %d\n"
	.text
	.globl	add
	.type	add, @function
add:
.LFB1:
	.cfi_startproc
	pushq	%rbp
	.cfi_def_cfa_offset 16
	.cfi_offset 6, -16
	movq	%rsp, %rbp
	.cfi_def_cfa_register 6
	subq	$16, %rsp
	movl	%edi, -4(%rbp)
	movl	%esi, -8(%rbp)
	movl	result.2367(%rip), %eax
	addl	$1, %eax
	movl	%eax, result.2367(%rip)
	movl	result.2367(%rip), %eax
	movl	%eax, %esi
	leaq	.LC1(%rip), %rdi
	movl	$0, %eax
	call	printf@PLT
	nop
	leave
	.cfi_def_cfa 7, 8
	ret
	.cfi_endproc
.LFE1:
	.size	add, .-add
	.globl	main
	.type	main, @function
main:
.LFB2:
	.cfi_startproc
	pushq	%rbp
	.cfi_def_cfa_offset 16
	.cfi_offset 6, -16
	movq	%rsp, %rbp
	.cfi_def_cfa_register 6
	subq	$16, %rsp
	movl	$5, -4(%rbp)
	movl	$6, -8(%rbp)
	movl	-8(%rbp), %edx
	movl	-4(%rbp), %eax
	movl	%edx, %esi
	movl	%eax, %edi
	call	sum
	movl	-8(%rbp), %edx
	movl	-4(%rbp), %eax
	movl	%edx, %esi
	movl	%eax, %edi
	call	add
	movl	-8(%rbp), %edx
	movl	-4(%rbp), %eax
	movl	%edx, %esi
	movl	%eax, %edi
	call	sum
	movl	-8(%rbp), %edx
	movl	-4(%rbp), %eax
	movl	%edx, %esi
	movl	%eax, %edi
	call	add
	movl	$0, %eax
	leave
	.cfi_def_cfa 7, 8
	ret
	.cfi_endproc
.LFE2:
	.size	main, .-main
	.data
	.align 4
	.type	result.2362, @object
	.size	result.2362, 4
result.2362:
	.long	5
	.align 4
	.type	result.2367, @object
	.size	result.2367, 4
result.2367:
	.long	15
	.ident	"GCC: (Debian 8.3.0-6) 8.3.0"
	.section	.note.GNU-stack,"",@progbits
